; Function Attrs: null_pointer_is_valid sspstrong uwtable
define internal i32 @dissect_logcat_text_tag(ptr noundef %0, ptr noundef %1, ptr noundef %2, ptr readnone captures(none) %3) #0 {
  %5 = load i32, ptr @exported_pdu_tap, align 4
  %6 = tail call zeroext i1 @have_tap_listener(i32 noundef %5)
  br i1 %6, label %7, label %add_exported_pdu.exit

7:                                                ; preds = %4
  %8 = tail call ptr @export_pdu_create_tags(ptr noundef %1, ptr noundef nonnull @.str.21, i16 noundef zeroext 12, ptr noundef null)
  %9 = tail call i32 @tvb_captured_length(ptr noundef %0)
  %10 = getelementptr inbounds nuw i8, ptr %8, i64 16
  store i32 %9, ptr %10, align 8
  %11 = tail call i32 @tvb_reported_length(ptr noundef %0)
  %12 = getelementptr inbounds nuw i8, ptr %8, i64 20
  store i32 %11, ptr %12, align 4
  %13 = getelementptr inbounds nuw i8, ptr %8, i64 24
  store ptr %0, ptr %13, align 8
  %14 = load i32, ptr @exported_pdu_tap, align 4
  tail call void @tap_queue_packet(i32 noundef %14, ptr noundef %1, ptr noundef %8)
  br label %add_exported_pdu.exit

add_exported_pdu.exit:                            ; preds = %4, %7
  %15 = tail call fastcc i32 @dissect_logcat_text(ptr noundef %0, ptr noundef %2, ptr noundef %1, ptr noundef nonnull @__const.dissect_logcat_text_tag.dinfo)
  ret i32 %15
}